; Function Attrs: mustprogress uwtable
define noundef double @casadi_c_default_in_id(i32 noundef %0, i64 noundef %1) local_unnamed_addr #5 personality ptr @__gxx_personality_v0 {
  %3 = tail call noundef i32 @_Z11sanitize_idi(i32 noundef %0)
  %.not = icmp eq i32 %3, 0
  br i1 %.not, label %4, label %38

4:                                                ; preds = %2
  %5 = sext i32 %0 to i64
  %6 = load ptr, ptr getelementptr inbounds nuw (i8, ptr @_ZL25casadi_c_loaded_functions, i64 8), align 8, !tbaa !9
  %7 = load ptr, ptr @_ZL25casadi_c_loaded_functions, align 8, !tbaa !3
  %8 = ptrtoint ptr %6 to i64
  %9 = ptrtoint ptr %7 to i64
  %10 = sub i64 %8, %9
  %11 = ashr exact i64 %10, 3
  %.not.i.i = icmp ugt i64 %11, %5
  br i1 %.not.i.i, label %13, label %12

12:                                               ; preds = %4
  invoke void (ptr, ...) @_ZSt24__throw_out_of_range_fmtPKcz(ptr noundef nonnull @.str.20, i64 noundef %5, i64 noundef %11) #25
          to label %.noexc unwind label %16

.noexc:                                           ; preds = %12
  unreachable

13:                                               ; preds = %4
  %14 = getelementptr inbounds nuw %"class.casadi::Function", ptr %7, i64 %5
  %15 = invoke noundef double @_ZNK6casadi8Function10default_inEx(ptr noundef nonnull align 8 dereferenceable(8) %14, i64 noundef %1)
          to label %38 unwind label %16

16:                                               ; preds = %12, %13
  %17 = landingpad { ptr, i32 }
          catch ptr @_ZTISt9exception
          catch ptr null
  %18 = extractvalue { ptr, i32 } %17, 0
  %19 = extractvalue { ptr, i32 } %17, 1
  %20 = tail call i32 @llvm.eh.typeid.for.p0(ptr nonnull @_ZTISt9exception) #23
  %21 = icmp eq i32 %19, %20
  %22 = tail call ptr @__cxa_begin_catch(ptr %18) #23
  br i1 %21, label %23, label %31

23:                                               ; preds = %16
  %24 = load ptr, ptr %22, align 8, !tbaa !32
  %25 = getelementptr inbounds nuw i8, ptr %24, i64 16
  %26 = load ptr, ptr %25, align 8
  %27 = tail call noundef ptr %26(ptr noundef nonnull align 8 dereferenceable(8) %22) #23
  %28 = invoke noundef nonnull align 8 dereferenceable(8) ptr @_ZStlsISt11char_traitsIcEERSt13basic_ostreamIcT_ES5_PKc(ptr noundef nonnull align 8 dereferenceable(8) @_ZSt4cerr, ptr noundef %27)
          to label %29 unwind label %36

29:                                               ; preds = %23
  %30 = invoke noundef nonnull align 8 dereferenceable(8) ptr @_ZSt4endlIcSt11char_traitsIcEERSt13basic_ostreamIT_T0_ES6_(ptr noundef nonnull align 8 dereferenceable(8) %28)
          to label %.sink.split unwind label %36

31:                                               ; preds = %16
  %32 = invoke noundef nonnull align 8 dereferenceable(8) ptr @_ZSt16__ostream_insertIcSt11char_traitsIcEERSt13basic_ostreamIT_T0_ES6_PKS3_l(ptr noundef nonnull align 8 dereferenceable(8) @_ZSt4cerr, ptr noundef nonnull @.str.8, i64 noundef 18)
          to label %_ZStlsISt11char_traitsIcEERSt13basic_ostreamIcT_ES5_PKc.exit unwind label %34

_ZStlsISt11char_traitsIcEERSt13basic_ostreamIcT_ES5_PKc.exit: ; preds = %31
  %33 = invoke noundef nonnull align 8 dereferenceable(8) ptr @_ZSt4endlIcSt11char_traitsIcEERSt13basic_ostreamIT_T0_ES6_(ptr noundef nonnull align 8 dereferenceable(8) @_ZSt4cerr)
          to label %.sink.split unwind label %34

34:                                               ; preds = %_ZStlsISt11char_traitsIcEERSt13basic_ostreamIcT_ES5_PKc.exit, %31
  %35 = landingpad { ptr, i32 }
          cleanup
  invoke void @__cxa_end_catch()
          to label %39 unwind label %40

36:                                               ; preds = %29, %23
  %37 = landingpad { ptr, i32 }
          cleanup
  invoke void @__cxa_end_catch()
          to label %39 unwind label %40

.sink.split:                                      ; preds = %_ZStlsISt11char_traitsIcEERSt13basic_ostreamIcT_ES5_PKc.exit, %29
  %.0.ph = phi double [ -2.000000e+00, %29 ], [ -3.000000e+00, %_ZStlsISt11char_traitsIcEERSt13basic_ostreamIcT_ES5_PKc.exit ]
  tail call void @__cxa_end_catch()
  br label %38

38:                                               ; preds = %.sink.split, %13, %2
  %.0 = phi double [ -1.000000e+00, %2 ], [ %15, %13 ], [ %.0.ph, %.sink.split ]
  ret double %.0

39:                                               ; preds = %36, %34
  %.pn = phi { ptr, i32 } [ %35, %34 ], [ %37, %36 ]
  resume { ptr, i32 } %.pn

40:                                               ; preds = %36, %34
  %41 = landingpad { ptr, i32 }
          catch ptr null
  %42 = extractvalue { ptr, i32 } %41, 0
  tail call void @__clang_call_terminate(ptr %42) #26
  unreachable
}